(dp0
S'METTS MARK'
p1
(dp2
S'salary'
p3
F365788.0
sS'total_payments'
p4
F1061827.0
sS'bonus'
p5
F600000.0
sS'total_stock_value'
p6
F585062.0
sS'expenses'
p7
F94299.0
sS'exercised_stock_options'
p8
S'NaN'
p9
sS'poi'
p10
I00
sS'salary_to_bonus_ratio'
p11
F0.6096466666666667
ssS'BAXTER JOHN C'
p12
(dp13
g3
F267102.0
sg4
F5634343.0
sg5
F1200000.0
sg6
F10623258.0
sg7
F11200.0
sg8
F6680544.0
sg10
I00
sg11
F0.222585
ssS'ELLIOTT STEVEN'
p14
(dp15
g3
F170941.0
sg4
F211725.0
sg5
F350000.0
sg6
F6678735.0
sg7
F78552.0
sg8
F4890344.0
sg10
I00
sg11
F0.48840285714285714
ssS'CORDES WILLIAM R'
p16
(dp17
g3
S'NaN'
p18
sg4
S'NaN'
p19
sg5
S'NaN'
p20
sg6
F1038185.0
sg7
S'NaN'
p21
sg8
F651850.0
sg10
I00
sg11
S'NaN'
p22
ssS'HANNON KEVIN P'
p23
(dp24
g3
F243293.0
sg4
F288682.0
sg5
F1500000.0
sg6
F6391065.0
sg7
F34039.0
sg8
F5538001.0
sg10
I01
sg11
F0.16219533333333333
ssS'MORDAUNT KRISTINA M'
p25
(dp26
g3
F267093.0
sg4
F628522.0
sg5
F325000.0
sg6
F208510.0
sg7
F35018.0
sg8
g9
sg10
I00
sg11
F0.8218246153846154
ssS'MEYER ROCKFORD G'
p27
(dp28
g3
g18
sg4
F1848227.0
sg5
g20
sg6
F955873.0
sg7
g21
sg8
F493489.0
sg10
I00
sg11
g22
ssS'MCMAHON JEFFREY'
p29
(dp30
g3
F370448.0
sg4
F4099771.0
sg5
F2600000.0
sg6
F1662855.0
sg7
F137108.0
sg8
F1104054.0
sg10
I00
sg11
F0.14248
ssS'HORTON STANLEY C'
p31
(dp32
g3
g18
sg4
F3131860.0
sg5
g20
sg6
F7256648.0
sg7
g21
sg8
F5210569.0
sg10
I00
sg11
g22
ssS'PIPER GREGORY F'
p33
(dp34
g3
F197091.0
sg4
F1737629.0
sg5
F400000.0
sg6
F880290.0
sg7
F43057.0
sg8
F880290.0
sg10
I00
sg11
F0.4927275
ssS'HUMPHREY GENE E'
p35
(dp36
g3
F130724.0
sg4
F3100224.0
sg5
g20
sg6
F2282768.0
sg7
F4994.0
sg8
F2282768.0
sg10
I00
sg11
g22
ssS'UMANOFF ADAM S'
p37
(dp38
g3
F288589.0
sg4
F1130461.0
sg5
F788750.0
sg6
S'NaN'
p39
sg7
F53122.0
sg8
g9
sg10
I00
sg11
F0.36588145800316957
ssS'BLACHMAN JEREMY M'
p40
(dp41
g3
F248546.0
sg4
F2014835.0
sg5
F850000.0
sg6
F954354.0
sg7
F84208.0
sg8
F765313.0
sg10
I00
sg11
F0.2924070588235294
ssS'SUNDE MARTIN'
p42
(dp43
g3
F257486.0
sg4
F1545059.0
sg5
F700000.0
sg6
F698920.0
sg7
g21
sg8
g9
sg10
I00
sg11
F0.36783714285714286
ssS'GIBBS DANA R'
p44
(dp45
g3
g18
sg4
F966522.0
sg5
g20
sg6
F2218275.0
sg7
g21
sg8
F2218275.0
sg10
I00
sg11
g22
ssS'LOWRY CHARLES P'
p46
(dp47
g3
g18
sg4
g19
sg5
g20
sg6
F372205.0
sg7
g21
sg8
F372205.0
sg10
I00
sg11
g22
ssS'COLWELL WESLEY'
p48
(dp49
g3
F288542.0
sg4
F1490344.0
sg5
F1200000.0
sg6
F698242.0
sg7
F16514.0
sg8
g9
sg10
I01
sg11
F0.24045166666666667
ssS'MULLER MARK S'
p50
(dp51
g3
F251654.0
sg4
F3202070.0
sg5
F1100000.0
sg6
F1416848.0
sg7
g21
sg8
F1056320.0
sg10
I00
sg11
F0.22877636363636364
ssS'JACKSON CHARLENE R'
p52
(dp53
g3
F288558.0
sg4
F551174.0
sg5
F250000.0
sg6
F725735.0
sg7
F10181.0
sg8
F185063.0
sg10
I00
sg11
F1.154232
ssS'WESTFAHL RICHARD K'
p54
(dp55
g3
F63744.0
sg4
F762135.0
sg5
g20
sg6
F384930.0
sg7
F51870.0
sg8
g9
sg10
I00
sg11
g22
ssS'WALTERS GARETH W'
p56
(dp57
g3
g18
sg4
F87410.0
sg5
g20
sg6
F1030329.0
sg7
F33785.0
sg8
F1030329.0
sg10
I00
sg11
g22
ssS'WALLS JR ROBERT H'
p58
(dp59
g3
F357091.0
sg4
F1798780.0
sg5
F850000.0
sg6
F5898997.0
sg7
F50936.0
sg8
F4346544.0
sg10
I00
sg11
F0.4201070588235294
ssS'KITCHEN LOUISE'
p60
(dp61
g3
F271442.0
sg4
F3471141.0
sg5
F3100000.0
sg6
F547143.0
sg7
F5774.0
sg8
F81042.0
sg10
I00
sg11
F0.08756193548387096
ssS'CHAN RONNIE'
p62
(dp63
g3
g18
sg4
g19
sg5
g20
sg6
g39
sg7
g21
sg8
g9
sg10
I00
sg11
g22
ssS'BELFER ROBERT'
p64
(dp65
g3
g18
sg4
F102500.0
sg5
g20
sg6
F-44093.0
sg7
g21
sg8
F3285.0
sg10
I00
sg11
g22
ssS'SHANKMAN JEFFREY A'
p66
(dp67
g3
F304110.0
sg4
F3038702.0
sg5
F2000000.0
sg6
F2072035.0
sg7
F178979.0
sg8
F1441898.0
sg10
I00
sg11
F0.152055
ssS'WODRASKA JOHN'
p68
(dp69
g3
g18
sg4
F189583.0
sg5
g20
sg6
g39
sg7
g21
sg8
g9
sg10
I00
sg11
g22
ssS'BERGSIEKER RICHARD P'
p70
(dp71
g3
F187922.0
sg4
F618850.0
sg5
F250000.0
sg6
F659249.0
sg7
F59175.0
sg8
g9
sg10
I00
sg11
F0.751688
ssS'URQUHART JOHN A'
p72
(dp73
g3
g18
sg4
F228656.0
sg5
g20
sg6
g39
sg7
F228656.0
sg8
g9
sg10
I00
sg11
g22
ssS'BIBI PHILIPPE A'
p74
(dp75
g3
F213625.0
sg4
F2047593.0
sg5
F1000000.0
sg6
F1843816.0
sg7
F38559.0
sg8
F1465734.0
sg10
I00
sg11
F0.213625
ssS'PIRO JIM'
p76
(dp77
g3
g18
sg4
g19
sg5
g20
sg6
F47304.0
sg7
g21
sg8
g9
sg10
I00
sg11
g22
ssS'RIEKER PAULA H'
p78
(dp79
g3
F249201.0
sg4
F1099100.0
sg5
F700000.0
sg6
F1918887.0
sg7
F33271.0
sg8
F1635238.0
sg10
I01
sg11
F0.3560014285714286
ssS'WHALEY DAVID A'
p80
(dp81
g3
g18
sg4
g19
sg5
g20
sg6
F98718.0
sg7
g21
sg8
F98718.0
sg10
I00
sg11
g22
ssS'BECK SALLY W'
p82
(dp83
g3
F231330.0
sg4
F969068.0
sg5
F700000.0
sg6
F126027.0
sg7
F37172.0
sg8
g9
sg10
I00
sg11
F0.3304714285714286
ssS'HAUG DAVID L'
p84
(dp85
g3
g18
sg4
F475.0
sg5
g20
sg6
F2217299.0
sg7
F475.0
sg8
g9
sg10
I00
sg11
g22
ssS'ECHOLS JOHN B'
p86
(dp87
g3
F182245.0
sg4
F2692324.0
sg5
F200000.0
sg6
F1008941.0
sg7
F21530.0
sg8
F601438.0
sg10
I00
sg11
F0.911225
ssS'MENDELSOHN JOHN'
p88
(dp89
g3
g18
sg4
F148.0
sg5
g20
sg6
g39
sg7
F148.0
sg8
g9
sg10
I00
sg11
g22
ssS'HICKERSON GARY J'
p90
(dp91
g3
F211788.0
sg4
F2081796.0
sg5
F1700000.0
sg6
F441096.0
sg7
F98849.0
sg8
g9
sg10
I00
sg11
F0.12458117647058824
ssS'CLINE KENNETH W'
p92
(dp93
g3
g18
sg4
g19
sg5
g20
sg6
F189518.0
sg7
g21
sg8
g9
sg10
I00
sg11
g22
ssS'LEWIS RICHARD'
p94
(dp95
g3
g18
sg4
g19
sg5
g20
sg6
F850477.0
sg7
g21
sg8
F850477.0
sg10
I00
sg11
g22
ssS'HAYES ROBERT E'
p96
(dp97
g3
g18
sg4
F7961.0
sg5
g20
sg6
F151418.0
sg7
g21
sg8
g9
sg10
I00
sg11
g22
ssS'KOPPER MICHAEL J'
p98
(dp99
g3
F224305.0
sg4
F2652612.0
sg5
F800000.0
sg6
F985032.0
sg7
F118134.0
sg8
g9
sg10
I01
sg11
F0.28038125
ssS'LEFF DANIEL P'
p100
(dp101
g3
F273746.0
sg4
F2664228.0
sg5
F1000000.0
sg6
F360528.0
sg7
g21
sg8
g9
sg10
I00
sg11
F0.273746
ssS'LAVORATO JOHN J'
p102
(dp103
g3
F339288.0
sg4
F10425757.0
sg5
F8000000.0
sg6
F5167144.0
sg7
F49537.0
sg8
F4158995.0
sg10
I00
sg11
F0.042411
ssS'BERBERIAN DAVID'
p104
(dp105
g3
F216582.0
sg4
F228474.0
sg5
g20
sg6
F2493616.0
sg7
F11892.0
sg8
F1624396.0
sg10
I00
sg11
g22
ssS'DETMERING TIMOTHY J'
p106
(dp107
g3
F210500.0
sg4
F1204583.0
sg5
F425000.0
sg6
F2027865.0
sg7
F52255.0
sg8
F2027865.0
sg10
I00
sg11
F0.49529411764705883
ssS'WAKEHAM JOHN'
p108
(dp109
g3
g18
sg4
F213071.0
sg5
g20
sg6
g39
sg7
F103773.0
sg8
g9
sg10
I00
sg11
g22
ssS'POWERS WILLIAM'
p110
(dp111
g3
g18
sg4
g19
sg5
g20
sg6
g39
sg7
g21
sg8
g9
sg10
I00
sg11
g22
ssS'GOLD JOSEPH'
p112
(dp113
g3
F272880.0
sg4
F2146973.0
sg5
F750000.0
sg6
F877611.0
sg7
g21
sg8
F436515.0
sg10
I00
sg11
F0.36384
ssS'BANNANTINE JAMES M'
p114
(dp115
g3
F477.0
sg4
F916197.0
sg5
g20
sg6
F5243487.0
sg7
F56301.0
sg8
F4046157.0
sg10
I00
sg11
g22
ssS'DUNCAN JOHN H'
p116
(dp117
g3
g18
sg4
F77492.0
sg5
g20
sg6
F371750.0
sg7
g21
sg8
F371750.0
sg10
I00
sg11
g22
ssS'SHAPIRO RICHARD S'
p118
(dp119
g3
F269076.0
sg4
F1057548.0
sg5
F650000.0
sg6
F987001.0
sg7
F137767.0
sg8
F607837.0
sg10
I00
sg11
F0.41396307692307693
ssS'SHERRIFF JOHN R'
p120
(dp121
g3
F428780.0
sg4
F4335388.0
sg5
F1500000.0
sg6
F3128982.0
sg7
g21
sg8
F1835558.0
sg10
I00
sg11
F0.28585333333333335
ssS'SHELBY REX'
p122
(dp123
g3
F211844.0
sg4
F2003885.0
sg5
F200000.0
sg6
F2493616.0
sg7
F22884.0
sg8
F1624396.0
sg10
I01
sg11
F1.05922
ssS'LEMAISTRE CHARLES'
p124
(dp125
g3
g18
sg4
F87492.0
sg5
g20
sg6
F412878.0
sg7
g21
sg8
F412878.0
sg10
I00
sg11
g22
ssS'DEFFNER JOSEPH M'
p126
(dp127
g3
F206121.0
sg4
F1208649.0
sg5
F600000.0
sg6
F159211.0
sg7
F41626.0
sg8
F17378.0
sg10
I00
sg11
F0.343535
ssS'KISHKILL JOSEPH G'
p128
(dp129
g3
F174246.0
sg4
F704896.0
sg5
g20
sg6
F1034346.0
sg7
F116335.0
sg8
g9
sg10
I00
sg11
g22
ssS'WHALLEY LAWRENCE G'
p130
(dp131
g3
F510364.0
sg4
F4677574.0
sg5
F3000000.0
sg6
F6079137.0
sg7
F57838.0
sg8
F3282960.0
sg10
I00
sg11
F0.17012133333333335
ssS'MCCARTY DANNY J'
p132
(dp133
g3
g18
sg4
g19
sg5
g20
sg6
F758931.0
sg7
g21
sg8
F664375.0
sg10
I00
sg11
g22
ssS'MCCONNELL MICHAEL S'
p134
(dp135
g3
F365038.0
sg4
F2101364.0
sg5
F1100000.0
sg6
F3101279.0
sg7
F81364.0
sg8
F1623010.0
sg10
I00
sg11
F0.3318527272727273
ssS'DELAINEY DAVID W'
p136
(dp137
g3
F365163.0
sg4
F4747979.0
sg5
F3000000.0
sg6
F3614261.0
sg7
F86174.0
sg8
F2291113.0
sg10
I01
sg11
F0.121721
ssS'SULLIVAN-SHAKLOVITZ COLLEEN'
p138
(dp139
g3
F162779.0
sg4
F999356.0
sg5
F100000.0
sg6
F1362375.0
sg7
g21
sg8
F1362375.0
sg10
I00
sg11
F1.62779
ssS'WROBEL BRUCE'
p140
(dp141
g3
g18
sg4
g19
sg5
g20
sg6
F139130.0
sg7
g21
sg8
F139130.0
sg10
I00
sg11
g22
ssS'LINDHOLM TOD A'
p142
(dp143
g3
F236457.0
sg4
F875889.0
sg5
F200000.0
sg6
F3064208.0
sg7
F57727.0
sg8
F2549361.0
sg10
I00
sg11
F1.182285
ssS'MEYER JEROME J'
p144
(dp145
g3
g18
sg4
F2151.0
sg5
g20
sg6
g39
sg7
F2151.0
sg8
g9
sg10
I00
sg11
g22
ssS'LAY KENNETH L'
p146
(dp147
g3
F1072321.0
sg4
F103559793.0
sg5
F7000000.0
sg6
F49110078.0
sg7
F99832.0
sg8
F34348384.0
sg10
I01
sg11
F0.1531887142857143
ssS'BUTTS ROBERT H'
p148
(dp149
g3
F261516.0
sg4
F1271582.0
sg5
F750000.0
sg6
F417619.0
sg7
F9410.0
sg8
g9
sg10
I00
sg11
F0.348688
ssS'OLSON CINDY K'
p150
(dp151
g3
F329078.0
sg4
F1321557.0
sg5
F750000.0
sg6
F2606763.0
sg7
F63791.0
sg8
F1637034.0
sg10
I00
sg11
F0.43877066666666664
ssS'MCDONALD REBECCA'
p152
(dp153
g3
g18
sg4
g19
sg5
g20
sg6
F1691366.0
sg7
g21
sg8
F757301.0
sg10
I00
sg11
g22
ssS'CUMBERLAND MICHAEL S'
p154
(dp155
g3
F184899.0
sg4
F807956.0
sg5
F325000.0
sg6
F207940.0
sg7
F22344.0
sg8
g9
sg10
I00
sg11
F0.56892
ssS'GAHN ROBERT S'
p156
(dp157
g3
F192008.0
sg4
F900585.0
sg5
F509870.0
sg6
F318607.0
sg7
F50080.0
sg8
F83237.0
sg10
I00
sg11
F0.3765822660678212
ssS'MCCLELLAN GEORGE'
p158
(dp159
g3
F263413.0
sg4
F1318763.0
sg5
F900000.0
sg6
F947861.0
sg7
F228763.0
sg8
F506765.0
sg10
I00
sg11
F0.2926811111111111
ssS'HERMANN ROBERT J'
p160
(dp161
g3
F262663.0
sg4
F1297461.0
sg5
F700000.0
sg6
F668132.0
sg7
F48357.0
sg8
F187500.0
sg10
I00
sg11
F0.37523285714285715
ssS'SCRIMSHAW MATTHEW'
p162
(dp163
g3
g18
sg4
g19
sg5
g20
sg6
F759557.0
sg7
g21
sg8
F759557.0
sg10
I00
sg11
g22
ssS'GATHMANN WILLIAM D'
p164
(dp165
g3
g18
sg4
g19
sg5
g20
sg6
F1945360.0
sg7
g21
sg8
F1753766.0
sg10
I00
sg11
g22
ssS'HAEDICKE MARK E'
p166
(dp167
g3
F374125.0
sg4
F3859065.0
sg5
F1150000.0
sg6
F803094.0
sg7
F76169.0
sg8
F608750.0
sg10
I00
sg11
F0.32532608695652177
ssS'BOWEN JR RAYMOND M'
p168
(dp169
g3
F278601.0
sg4
F2669589.0
sg5
F1350000.0
sg6
F252055.0
sg7
F65907.0
sg8
g9
sg10
I01
sg11
F0.20637111111111112
ssS'GILLIS JOHN'
p170
(dp171
g3
g18
sg4
g19
sg5
g20
sg6
F85641.0
sg7
g21
sg8
F9803.0
sg10
I00
sg11
g22
ssS'FITZGERALD JAY L'
p172
(dp173
g3
F199157.0
sg4
F1414857.0
sg5
F350000.0
sg6
F1621236.0
sg7
F23870.0
sg8
F664461.0
sg10
I00
sg11
F0.56902
ssS'MORAN MICHAEL P'
p174
(dp175
g3
g18
sg4
g19
sg5
g20
sg6
F221141.0
sg7
g21
sg8
F59539.0
sg10
I00
sg11
g22
ssS'REDMOND BRIAN L'
p176
(dp177
g3
F96840.0
sg4
F111529.0
sg5
g20
sg6
F7890324.0
sg7
F14689.0
sg8
F7509039.0
sg10
I00
sg11
g22
ssS'BAZELIDES PHILIP J'
p178
(dp179
g3
F80818.0
sg4
F860136.0
sg5
g20
sg6
F1599641.0
sg7
g21
sg8
F1599641.0
sg10
I00
sg11
g22
ssS'BELDEN TIMOTHY N'
p180
(dp181
g3
F213999.0
sg4
F5501630.0
sg5
F5249999.0
sg6
F1110705.0
sg7
F17355.0
sg8
F953136.0
sg10
I01
sg11
F0.04076172204985182
ssS'DURAN WILLIAM D'
p182
(dp183
g3
F210692.0
sg4
F2093263.0
sg5
F750000.0
sg6
F1640910.0
sg7
F25785.0
sg8
F1451869.0
sg10
I00
sg11
F0.28092266666666665
ssS'THORN TERENCE H'
p184
(dp185
g3
F222093.0
sg4
F911453.0
sg5
g20
sg6
F4817796.0
sg7
F46145.0
sg8
F4452476.0
sg10
I00
sg11
g22
ssS'FASTOW ANDREW S'
p186
(dp187
g3
F440698.0
sg4
F2424083.0
sg5
F1300000.0
sg6
F1794412.0
sg7
F55921.0
sg8
g9
sg10
I01
sg11
F0.3389984615384615
ssS'FOY JOE'
p188
(dp189
g3
g18
sg4
F181755.0
sg5
g20
sg6
F343434.0
sg7
g21
sg8
F343434.0
sg10
I00
sg11
g22
ssS'CALGER CHRISTOPHER F'
p190
(dp191
g3
F240189.0
sg4
F1639297.0
sg5
F1250000.0
sg6
F126027.0
sg7
F35818.0
sg8
g9
sg10
I01
sg11
F0.1921512
ssS'RICE KENNETH D'
p192
(dp193
g3
F420636.0
sg4
F505050.0
sg5
F1750000.0
sg6
F22542539.0
sg7
F46950.0
sg8
F19794175.0
sg10
I01
sg11
F0.24036342857142856
ssS'KAMINSKI WINCENTY J'
p194
(dp195
g3
F275101.0
sg4
F1086821.0
sg5
F400000.0
sg6
F976037.0
sg7
F83585.0
sg8
F850010.0
sg10
I00
sg11
F0.6877525
ssS'LOCKHART EUGENE E'
p196
(dp197
g3
g18
sg4
g19
sg5
g20
sg6
g39
sg7
g21
sg8
g9
sg10
I00
sg11
g22
ssS'COX DAVID'
p198
(dp199
g3
F314288.0
sg4
F1101393.0
sg5
F800000.0
sg6
F495633.0
sg7
F27861.0
sg8
F117551.0
sg10
I00
sg11
F0.39286
ssS'OVERDYKE JR JERE C'
p200
(dp201
g3
F94941.0
sg4
F249787.0
sg5
g20
sg6
F7307594.0
sg7
F18834.0
sg8
F5266578.0
sg10
I00
sg11
g22
ssS'PEREIRA PAULO V. FERRAZ'
p202
(dp203
g3
g18
sg4
F27942.0
sg5
g20
sg6
g39
sg7
F27942.0
sg8
g9
sg10
I00
sg11
g22
ssS'STABLER FRANK'
p204
(dp205
g3
F239502.0
sg4
F1112087.0
sg5
F500000.0
sg6
F511734.0
sg7
F16514.0
sg8
g9
sg10
I00
sg11
F0.479004
ssS'SKILLING JEFFREY K'
p206
(dp207
g3
F1111258.0
sg4
F8682716.0
sg5
F5600000.0
sg6
F26093672.0
sg7
F29336.0
sg8
F19250000.0
sg10
I01
sg11
F0.19843892857142856
ssS'BLAKE JR. NORMAN P'
p208
(dp209
g3
g18
sg4
F1279.0
sg5
g20
sg6
g39
sg7
F1279.0
sg8
g9
sg10
I00
sg11
g22
ssS'SHERRICK JEFFREY B'
p210
(dp211
g3
g18
sg4
g19
sg5
g20
sg6
F1832468.0
sg7
g21
sg8
F1426469.0
sg10
I00
sg11
g22
ssS'PRENTICE JAMES'
p212
(dp213
g3
g18
sg4
F564348.0
sg5
g20
sg6
F1095040.0
sg7
g21
sg8
F886231.0
sg10
I00
sg11
g22
ssS'GRAY RODNEY'
p214
(dp215
g3
F6615.0
sg4
F1146658.0
sg5
g20
sg6
g39
sg7
g21
sg8
g9
sg10
I00
sg11
g22
ssS'PICKERING MARK R'
p216
(dp217
g3
F655037.0
sg4
F1386690.0
sg5
F300000.0
sg6
F28798.0
sg7
F31653.0
sg8
F28798.0
sg10
I00
sg11
F2.183456666666667
ssS'THE TRAVEL AGENCY IN THE PARK'
p218
(dp219
g3
g18
sg4
F362096.0
sg5
g20
sg6
g39
sg7
g21
sg8
g9
sg10
I00
sg11
g22
ssS'NOLES JAMES L'
p220
(dp221
g3
g18
sg4
F774401.0
sg5
g20
sg6
F368705.0
sg7
g21
sg8
g9
sg10
I00
sg11
g22
ssS'KEAN STEVEN J'
p222
(dp223
g3
F404338.0
sg4
F1747522.0
sg5
F1000000.0
sg6
F6153642.0
sg7
F41953.0
sg8
F2022048.0
sg10
I00
sg11
F0.404338
ssS'FOWLER PEGGY'
p224
(dp225
g3
g18
sg4
g19
sg5
g20
sg6
F1884748.0
sg7
g21
sg8
F1324578.0
sg10
I00
sg11
g22
ssS'WASAFF GEORGE'
p226
(dp227
g3
F259996.0
sg4
F1034395.0
sg5
F325000.0
sg6
F2056427.0
sg7
g21
sg8
F1668260.0
sg10
I00
sg11
F0.7999876923076923
ssS'WHITE JR THOMAS E'
p228
(dp229
g3
F317543.0
sg4
F1934359.0
sg5
F450000.0
sg6
F15144123.0
sg7
F81353.0
sg8
F1297049.0
sg10
I00
sg11
F0.7056511111111111
ssS'CHRISTODOULOU DIOMEDES'
p230
(dp231
g3
g18
sg4
g19
sg5
g20
sg6
F6077885.0
sg7
g21
sg8
F5127155.0
sg10
I00
sg11
g22
ssS'ALLEN PHILLIP K'
p232
(dp233
g3
F201955.0
sg4
F4484442.0
sg5
F4175000.0
sg6
F1729541.0
sg7
F13868.0
sg8
F1729541.0
sg10
I00
sg11
F0.04837245508982036
ssS'SHARP VICTORIA T'
p234
(dp235
g3
F248146.0
sg4
F1576511.0
sg5
F600000.0
sg6
F494136.0
sg7
F116337.0
sg8
F281073.0
sg10
I00
sg11
F0.41357666666666665
ssS'JAEDICKE ROBERT'
p236
(dp237
g3
g18
sg4
F83750.0
sg5
g20
sg6
F431750.0
sg7
g21
sg8
F431750.0
sg10
I00
sg11
g22
ssS'WINOKUR JR. HERBERT S'
p238
(dp239
g3
g18
sg4
F84992.0
sg5
g20
sg6
g39
sg7
F1413.0
sg8
g9
sg10
I00
sg11
g22
ssS'BROWN MICHAEL'
p240
(dp241
g3
g18
sg4
F49288.0
sg5
g20
sg6
g39
sg7
F49288.0
sg8
g9
sg10
I00
sg11
g22
ssS'BADUM JAMES P'
p242
(dp243
g3
g18
sg4
F182466.0
sg5
g20
sg6
F257817.0
sg7
F3486.0
sg8
F257817.0
sg10
I00
sg11
g22
ssS'HUGHES JAMES A'
p244
(dp245
g3
g18
sg4
g19
sg5
g20
sg6
F1118394.0
sg7
g21
sg8
F754966.0
sg10
I00
sg11
g22
ssS'REYNOLDS LAWRENCE'
p246
(dp247
g3
F76399.0
sg4
F394475.0
sg5
F100000.0
sg6
F4221891.0
sg7
F8409.0
sg8
F4160672.0
sg10
I00
sg11
F0.76399
ssS'DIMICHELE RICHARD G'
p248
(dp249
g3
F262788.0
sg4
F2368151.0
sg5
F1000000.0
sg6
F8317782.0
sg7
F35812.0
sg8
F8191755.0
sg10
I00
sg11
F0.262788
ssS'BHATNAGAR SANJAY'
p250
(dp251
g3
g18
sg4
F15456290.0
sg5
g20
sg6
g39
sg7
g21
sg8
F2604490.0
sg10
I00
sg11
g22
ssS'CARTER REBECCA C'
p252
(dp253
g3
F261809.0
sg4
F477557.0
sg5
F300000.0
sg6
g39
sg7
g21
sg8
g9
sg10
I00
sg11
F0.8726966666666667
ssS'BUCHANAN HAROLD G'
p254
(dp255
g3
F248017.0
sg4
F1054637.0
sg5
F500000.0
sg6
F1014505.0
sg7
F600.0
sg8
F825464.0
sg10
I00
sg11
F0.496034
ssS'YEAP SOON'
p256
(dp257
g3
g18
sg4
F55097.0
sg5
g20
sg6
F192758.0
sg7
F55097.0
sg8
F192758.0
sg10
I00
sg11
g22
ssS'MURRAY JULIA H'
p258
(dp259
g3
F229284.0
sg4
F812194.0
sg5
F400000.0
sg6
F597461.0
sg7
F57580.0
sg8
F400478.0
sg10
I00
sg11
F0.57321
ssS'GARLAND C KEVIN'
p260
(dp261
g3
F231946.0
sg4
F1566469.0
sg5
F850000.0
sg6
F896153.0
sg7
F48405.0
sg8
F636246.0
sg10
I00
sg11
F0.2728776470588235
ssS'DODSON KEITH'
p262
(dp263
g3
F221003.0
sg4
F319941.0
sg5
F70000.0
sg6
g39
sg7
F28164.0
sg8
g9
sg10
I00
sg11
F3.1571857142857143
ssS'YEAGER F SCOTT'
p264
(dp265
g3
F158403.0
sg4
F360300.0
sg5
g20
sg6
F11884758.0
sg7
F53947.0
sg8
F8308552.0
sg10
I01
sg11
g22
ssS'HIRKO JOSEPH'
p266
(dp267
g3
g18
sg4
F91093.0
sg5
g20
sg6
F30766064.0
sg7
F77978.0
sg8
F30766064.0
sg10
I01
sg11
g22
ssS'DIETRICH JANET R'
p268
(dp269
g3
F250100.0
sg4
F1410464.0
sg5
F600000.0
sg6
F1865087.0
sg7
F3475.0
sg8
F1550019.0
sg10
I00
sg11
F0.41683333333333333
ssS'DERRICK JR. JAMES V'
p270
(dp271
g3
F492375.0
sg4
F550981.0
sg5
F800000.0
sg6
F8831913.0
sg7
F51124.0
sg8
F8831913.0
sg10
I00
sg11
F0.61546875
ssS'FREVERT MARK A'
p272
(dp273
g3
F1060932.0
sg4
F17252530.0
sg5
F2000000.0
sg6
F14622185.0
sg7
F86987.0
sg8
F10433518.0
sg10
I00
sg11
F0.530466
ssS'PAI LOU L'
p274
(dp275
g3
F261879.0
sg4
F3123383.0
sg5
F1000000.0
sg6
F23817930.0
sg7
F32047.0
sg8
F15364167.0
sg10
I00
sg11
F0.261879
ssS'BAY FRANKLIN R'
p276
(dp277
g3
F239671.0
sg4
F827696.0
sg5
F400000.0
sg6
F63014.0
sg7
F129142.0
sg8
g9
sg10
I00
sg11
F0.5991775
ssS'HAYSLETT RODERICK J'
p278
(dp279
g3
g18
sg4
g19
sg5
g20
sg6
F346663.0
sg7
g21
sg8
g9
sg10
I00
sg11
g22
ssS'FUGH JOHN L'
p280
(dp281
g3
g18
sg4
F50591.0
sg5
g20
sg6
F176378.0
sg7
g21
sg8
F176378.0
sg10
I00
sg11
g22
ssS'FALLON JAMES B'
p282
(dp283
g3
F304588.0
sg4
F3676340.0
sg5
F2500000.0
sg6
F2332399.0
sg7
F95924.0
sg8
F940257.0
sg10
I00
sg11
F0.1218352
ssS'KOENIG MARK E'
p284
(dp285
g3
F309946.0
sg4
F1587421.0
sg5
F700000.0
sg6
F1920055.0
sg7
F127017.0
sg8
F671737.0
sg10
I01
sg11
F0.44278
ssS'SAVAGE FRANK'
p286
(dp287
g3
g18
sg4
F3750.0
sg5
g20
sg6
g39
sg7
g21
sg8
g9
sg10
I00
sg11
g22
ssS'IZZO LAWRENCE L'
p288
(dp289
g3
F85274.0
sg4
F1979596.0
sg5
g20
sg6
F5819980.0
sg7
F28093.0
sg8
F2165172.0
sg10
I00
sg11
g22
ssS'TILNEY ELIZABETH A'
p290
(dp291
g3
F247338.0
sg4
F399393.0
sg5
F300000.0
sg6
F1168042.0
sg7
g21
sg8
F591250.0
sg10
I00
sg11
F0.82446
ssS'MARTIN AMANDA K'
p292
(dp293
g3
F349487.0
sg4
F8407016.0
sg5
g20
sg6
F2070306.0
sg7
F8211.0
sg8
F2070306.0
sg10
I00
sg11
g22
ssS'BUY RICHARD B'
p294
(dp295
g3
F330546.0
sg4
F2355702.0
sg5
F900000.0
sg6
F3444470.0
sg7
g21
sg8
F2542813.0
sg10
I00
sg11
F0.36727333333333334
ssS'GRAMM WENDY L'
p296
(dp297
g3
g18
sg4
F119292.0
sg5
g20
sg6
g39
sg7
g21
sg8
g9
sg10
I00
sg11
g22
ssS'CAUSEY RICHARD A'
p298
(dp299
g3
F415189.0
sg4
F1868758.0
sg5
F1000000.0
sg6
F2502063.0
sg7
F30674.0
sg8
g9
sg10
I01
sg11
F0.415189
ssS'TAYLOR MITCHELL S'
p300
(dp301
g3
F265214.0
sg4
F1092663.0
sg5
F600000.0
sg6
F3745048.0
sg7
g21
sg8
F3181250.0
sg10
I00
sg11
F0.4420233333333333
ssS'DONAHUE JR JEFFREY M'
p302
(dp303
g3
F278601.0
sg4
F875760.0
sg5
F800000.0
sg6
F1080988.0
sg7
F96268.0
sg8
F765920.0
sg10
I00
sg11
F0.34825125
ssS'GLISAN JR BEN F'
p304
(dp305
g3
F274975.0
sg4
F1272284.0
sg5
F600000.0
sg6
F778546.0
sg7
F125978.0
sg8
F384728.0
sg10
I01
sg11
F0.45829166666666665
ss.